target datalayout = "e-m:e-p270:32:32-p271:32:32-p272:64:64-i64:64-i128:128-f80:128-n8:16:32:64-S128"
target triple = "x86_64-pc-linux-gnu"

%struct.http2_session_data = type { ptr, ptr, ptr, ptr }

@.str.7 = private unnamed_addr constant [16 x i8] c"Fatal error: %s\00", align 1
@.str.8 = private unnamed_addr constant [35 x i8] c"Fatal error: evbuffer_drain failed\00", align 1

; Function Attrs: nounwind uwtable
define internal i32 @session_send(ptr noundef %0) #0 {
  %2 = alloca i32, align 4
  %3 = alloca ptr, align 8
  %4 = alloca i32, align 4
  %5 = alloca i32, align 4
  store ptr %0, ptr %3, align 8, !tbaa !29
  call void @llvm.lifetime.start.p0(i64 4, ptr %4) #10
  %6 = load ptr, ptr %3, align 8, !tbaa !29
  %7 = getelementptr inbounds nuw %struct.http2_session_data, ptr %6, i32 0, i32 0
  %8 = load ptr, ptr %7, align 8, !tbaa !54
  %9 = call i32 @nghttp2_session_send(ptr noundef %8)
  store i32 %9, ptr %4, align 4, !tbaa !4
  %10 = load i32, ptr %4, align 4, !tbaa !4
  %11 = icmp ne i32 %10, 0
  br i1 %11, label %12, label %15

12:                                               ; preds = %1
  %13 = load i32, ptr %4, align 4, !tbaa !4
  %14 = call ptr @nghttp2_strerror(i32 noundef %13)
  call void (ptr, ...) @warnx(ptr noundef @.str.7, ptr noundef %14)
  store i32 -1, ptr %2, align 4
  store i32 1, ptr %5, align 4
  br label %16

15:                                               ; preds = %1
  store i32 0, ptr %2, align 4
  store i32 1, ptr %5, align 4
  br label %16

16:                                               ; preds = %15, %12
  call void @llvm.lifetime.end.p0(i64 4, ptr %4) #10
  %17 = load i32, ptr %2, align 4
  ret i32 %17
}

; Function Attrs: nounwind uwtable
define internal void @readcb(ptr noundef %0, ptr noundef %1) #0 {
  %3 = alloca ptr, align 8
  %4 = alloca ptr, align 8
  %5 = alloca ptr, align 8
  %6 = alloca i64, align 8
  %7 = alloca ptr, align 8
  %8 = alloca i64, align 8
  %9 = alloca ptr, align 8
  %10 = alloca i32, align 4
  store ptr %0, ptr %3, align 8, !tbaa !50
  store ptr %1, ptr %4, align 8, !tbaa !29
  call void @llvm.lifetime.start.p0(i64 8, ptr %5) #10
  %11 = load ptr, ptr %4, align 8, !tbaa !29
  store ptr %11, ptr %5, align 8, !tbaa !29
  call void @llvm.lifetime.start.p0(i64 8, ptr %6) #10
  call void @llvm.lifetime.start.p0(i64 8, ptr %7) #10
  %12 = load ptr, ptr %3, align 8, !tbaa !50
  %13 = call ptr @bufferevent_get_input(ptr noundef %12)
  store ptr %13, ptr %7, align 8, !tbaa !52
  call void @llvm.lifetime.start.p0(i64 8, ptr %8) #10
  %14 = load ptr, ptr %7, align 8, !tbaa !52
  %15 = call i64 @evbuffer_get_length(ptr noundef %14)
  store i64 %15, ptr %8, align 8, !tbaa !38
  call void @llvm.lifetime.start.p0(i64 8, ptr %9) #10
  %16 = load ptr, ptr %7, align 8, !tbaa !52
  %17 = call ptr @evbuffer_pullup(ptr noundef %16, i64 noundef -1)
  store ptr %17, ptr %9, align 8, !tbaa !15
  %18 = load ptr, ptr %5, align 8, !tbaa !29
  %19 = getelementptr inbounds nuw %struct.http2_session_data, ptr %18, i32 0, i32 0
  %20 = load ptr, ptr %19, align 8, !tbaa !54
  %21 = load ptr, ptr %9, align 8, !tbaa !15
  %22 = load i64, ptr %8, align 8, !tbaa !38
  %23 = call i64 @nghttp2_session_mem_recv2(ptr noundef %20, ptr noundef %21, i64 noundef %22)
  store i64 %23, ptr %6, align 8, !tbaa !38
  %24 = load i64, ptr %6, align 8, !tbaa !38
  %25 = icmp slt i64 %24, 0
  br i1 %25, label %26, label %31

26:                                               ; preds = %2
  %27 = load i64, ptr %6, align 8, !tbaa !38
  %28 = trunc i64 %27 to i32
  %29 = call ptr @nghttp2_strerror(i32 noundef %28)
  call void (ptr, ...) @warnx(ptr noundef @.str.7, ptr noundef %29)
  %30 = load ptr, ptr %5, align 8, !tbaa !29
  call void @delete_http2_session_data(ptr noundef %30)
  store i32 1, ptr %10, align 4
  br label %45

31:                                               ; preds = %2
  %32 = load ptr, ptr %7, align 8, !tbaa !52
  %33 = load i64, ptr %6, align 8, !tbaa !38
  %34 = call i32 @evbuffer_drain(ptr noundef %32, i64 noundef %33)
  %35 = icmp ne i32 %34, 0
  br i1 %35, label %36, label %38

36:                                               ; preds = %31
  call void (ptr, ...) @warnx(ptr noundef @.str.8)
  %37 = load ptr, ptr %5, align 8, !tbaa !29
  call void @delete_http2_session_data(ptr noundef %37)
  store i32 1, ptr %10, align 4
  br label %45

38:                                               ; preds = %31
  %39 = load ptr, ptr %5, align 8, !tbaa !29
  %40 = call i32 @session_send(ptr noundef %39)
  %41 = icmp ne i32 %40, 0
  br i1 %41, label %42, label %44

42:                                               ; preds = %38
  %43 = load ptr, ptr %5, align 8, !tbaa !29
  call void @delete_http2_session_data(ptr noundef %43)
  store i32 1, ptr %10, align 4
  br label %45

44:                                               ; preds = %38
  store i32 0, ptr %10, align 4
  br label %45

45:                                               ; preds = %44, %42, %36, %26
  call void @llvm.lifetime.end.p0(i64 8, ptr %9) #10
  call void @llvm.lifetime.end.p0(i64 8, ptr %8) #10
  call void @llvm.lifetime.end.p0(i64 8, ptr %7) #10
  call void @llvm.lifetime.end.p0(i64 8, ptr %6) #10
  call void @llvm.lifetime.end.p0(i64 8, ptr %5) #10
  %46 = load i32, ptr %10, align 4
  switch i32 %46, label %48 [
    i32 0, label %47
    i32 1, label %47
  ]

47:                                               ; preds = %45, %45
  ret void

48:                                               ; preds = %45
  unreachable
}