; Function Attrs: nounwind uwtable
define internal void @readcb(ptr noundef %0, ptr noundef captures(none) %1) #0 {
  %3 = tail call ptr @bufferevent_get_input(ptr noundef %0) #18
  %4 = tail call i64 @evbuffer_get_length(ptr noundef %3) #18
  %5 = tail call ptr @evbuffer_pullup(ptr noundef %3, i64 noundef -1) #18
  %6 = load ptr, ptr %1, align 8, !tbaa !37
  %7 = tail call i64 @nghttp2_session_mem_recv2(ptr noundef %6, ptr noundef %5, i64 noundef %4) #18
  %8 = icmp slt i64 %7, 0
  br i1 %8, label %9, label %12

9:                                                ; preds = %2
  %10 = trunc i64 %7 to i32
  %11 = tail call ptr @nghttp2_strerror(i32 noundef %10) #18
  tail call void (ptr, ...) @warnx(ptr noundef nonnull @.str.7, ptr noundef %11) #18
  br label %session_send.exit.thread.sink.split

12:                                               ; preds = %2
  %13 = tail call i32 @evbuffer_drain(ptr noundef %3, i64 noundef %7) #18
  %.not = icmp eq i32 %13, 0
  br i1 %.not, label %15, label %14

14:                                               ; preds = %12
  tail call void (ptr, ...) @warnx(ptr noundef nonnull @.str.8) #18
  br label %session_send.exit.thread.sink.split

15:                                               ; preds = %12
  %.val = load ptr, ptr %1, align 8, !tbaa !37
  %16 = tail call i32 @nghttp2_session_send(ptr noundef %.val) #18
  %.not.i = icmp eq i32 %16, 0
  br i1 %.not.i, label %session_send.exit.thread, label %17

17:                                               ; preds = %15
  %18 = tail call ptr @nghttp2_strerror(i32 noundef %16) #18
  tail call void (ptr, ...) @warnx(ptr noundef nonnull @.str.7, ptr noundef %18) #18
  br label %session_send.exit.thread.sink.split

session_send.exit.thread.sink.split:              ; preds = %9, %14, %17
  tail call fastcc void @delete_http2_session_data(ptr noundef nonnull %1)
  br label %session_send.exit.thread

session_send.exit.thread:                         ; preds = %session_send.exit.thread.sink.split, %15
  ret void
}